target datalayout = "e-m:e-p270:32:32-p271:32:32-p272:64:64-i64:64-i128:128-f80:128-n8:16:32:64-S128"
target triple = "x86_64-pc-linux-gnu"

%struct.lua_State = type { ptr, i8, i8, i8, i8, i16, %union.StkIdRel, ptr, ptr, %union.StkIdRel, %union.StkIdRel, ptr, %union.StkIdRel, ptr, ptr, ptr, %struct.CallInfo, ptr, i64, i32, i32, i32, i32, i32, %struct.anon.2 }
%union.StkIdRel = type { ptr }
%struct.CallInfo = type { %union.StkIdRel, %union.StkIdRel, ptr, ptr, %union.anon, %union.anon.1, i32 }
%union.anon = type { %struct.anon.0 }
%struct.anon.0 = type { ptr, i64, i64 }
%union.anon.1 = type { i32 }
%struct.anon.2 = type { i32, i32 }
%struct.global_State = type { ptr, ptr, i64, i64, i64, i64, %struct.stringtable, %struct.TValue, %struct.TValue, i32, [6 x i8], i8, i8, i8, i8, i8, i8, ptr, ptr, ptr, ptr, ptr, ptr, ptr, ptr, ptr, ptr, ptr, ptr, ptr, ptr, ptr, ptr, ptr, ptr, ptr, ptr, ptr, [25 x ptr], [9 x ptr], [53 x [2 x ptr]], ptr, ptr }
%struct.stringtable = type { ptr, i32, i32 }
%struct.TValue = type { %union.Value, i8 }
%union.Value = type { ptr }

; Function Attrs: nounwind uwtable
define hidden ptr @luaM_realloc_(ptr noundef %0, ptr noundef %1, i64 noundef %2, i64 noundef %3) #0 {
  %5 = alloca ptr, align 8
  %6 = alloca ptr, align 8
  %7 = alloca ptr, align 8
  %8 = alloca i64, align 8
  %9 = alloca i64, align 8
  %10 = alloca ptr, align 8
  %11 = alloca ptr, align 8
  %12 = alloca i32, align 4
  store ptr %0, ptr %6, align 8, !tbaa !4
  store ptr %1, ptr %7, align 8, !tbaa !9
  store i64 %2, ptr %8, align 8, !tbaa !16
  store i64 %3, ptr %9, align 8, !tbaa !16
  call void @llvm.lifetime.start.p0(i64 8, ptr %10) #6
  call void @llvm.lifetime.start.p0(i64 8, ptr %11) #6
  %13 = load ptr, ptr %6, align 8, !tbaa !4
  %14 = getelementptr inbounds nuw %struct.lua_State, ptr %13, i32 0, i32 7
  %15 = load ptr, ptr %14, align 8, !tbaa !18
  store ptr %15, ptr %11, align 8, !tbaa !28
  %16 = load ptr, ptr %11, align 8, !tbaa !28
  %17 = getelementptr inbounds nuw %struct.global_State, ptr %16, i32 0, i32 0
  %18 = load ptr, ptr %17, align 8, !tbaa !29
  %19 = load ptr, ptr %11, align 8, !tbaa !28
  %20 = getelementptr inbounds nuw %struct.global_State, ptr %19, i32 0, i32 1
  %21 = load ptr, ptr %20, align 8, !tbaa !36
  %22 = load ptr, ptr %7, align 8, !tbaa !9
  %23 = load i64, ptr %8, align 8, !tbaa !16
  %24 = load i64, ptr %9, align 8, !tbaa !16
  %25 = call ptr %18(ptr noundef %21, ptr noundef %22, i64 noundef %23, i64 noundef %24)
  store ptr %25, ptr %10, align 8, !tbaa !9
  %26 = load ptr, ptr %10, align 8, !tbaa !9
  %27 = icmp eq ptr %26, null
  br i1 %27, label %28, label %31

28:                                               ; preds = %4
  %29 = load i64, ptr %9, align 8, !tbaa !16
  %30 = icmp ugt i64 %29, 0
  br label %31

31:                                               ; preds = %28, %4
  %32 = phi i1 [ false, %4 ], [ %30, %28 ]
  %33 = zext i1 %32 to i32
  %34 = icmp ne i32 %33, 0
  %35 = zext i1 %34 to i32
  %36 = sext i32 %35 to i64
  %37 = call i64 @llvm.expect.i64(i64 %36, i64 0)
  %38 = icmp ne i64 %37, 0
  br i1 %38, label %39, label %49

39:                                               ; preds = %31
  %40 = load ptr, ptr %6, align 8, !tbaa !4
  %41 = load ptr, ptr %7, align 8, !tbaa !9
  %42 = load i64, ptr %8, align 8, !tbaa !16
  %43 = load i64, ptr %9, align 8, !tbaa !16
  %44 = call ptr @tryagain(ptr noundef %40, ptr noundef %41, i64 noundef %42, i64 noundef %43)
  store ptr %44, ptr %10, align 8, !tbaa !9
  %45 = load ptr, ptr %10, align 8, !tbaa !9
  %46 = icmp eq ptr %45, null
  br i1 %46, label %47, label %48

47:                                               ; preds = %39
  store ptr null, ptr %5, align 8
  store i32 1, ptr %12, align 4
  br label %58

48:                                               ; preds = %39
  br label %49

49:                                               ; preds = %48, %31
  %50 = load i64, ptr %9, align 8, !tbaa !16
  %51 = load i64, ptr %8, align 8, !tbaa !16
  %52 = sub nsw i64 %50, %51
  %53 = load ptr, ptr %11, align 8, !tbaa !28
  %54 = getelementptr inbounds nuw %struct.global_State, ptr %53, i32 0, i32 3
  %55 = load i64, ptr %54, align 8, !tbaa !37
  %56 = sub nsw i64 %55, %52
  store i64 %56, ptr %54, align 8, !tbaa !37
  %57 = load ptr, ptr %10, align 8, !tbaa !9
  store ptr %57, ptr %5, align 8
  store i32 1, ptr %12, align 4
  br label %58

58:                                               ; preds = %49, %47
  call void @llvm.lifetime.end.p0(i64 8, ptr %11) #6
  call void @llvm.lifetime.end.p0(i64 8, ptr %10) #6
  %59 = load ptr, ptr %5, align 8
  ret ptr %59
}

; Function Attrs: nounwind uwtable
define hidden ptr @luaM_saferealloc_(ptr noundef %0, ptr noundef %1, i64 noundef %2, i64 noundef %3) #0 {
  %5 = alloca ptr, align 8
  %6 = alloca ptr, align 8
  %7 = alloca i64, align 8
  %8 = alloca i64, align 8
  %9 = alloca ptr, align 8
  store ptr %0, ptr %5, align 8, !tbaa !4
  store ptr %1, ptr %6, align 8, !tbaa !9
  store i64 %2, ptr %7, align 8, !tbaa !16
  store i64 %3, ptr %8, align 8, !tbaa !16
  call void @llvm.lifetime.start.p0(i64 8, ptr %9) #6
  %10 = load ptr, ptr %5, align 8, !tbaa !4
  %11 = load ptr, ptr %6, align 8, !tbaa !9
  %12 = load i64, ptr %7, align 8, !tbaa !16
  %13 = load i64, ptr %8, align 8, !tbaa !16
  %14 = call ptr @luaM_realloc_(ptr noundef %10, ptr noundef %11, i64 noundef %12, i64 noundef %13)
  store ptr %14, ptr %9, align 8, !tbaa !9
  %15 = load ptr, ptr %9, align 8, !tbaa !9
  %16 = icmp eq ptr %15, null
  br i1 %16, label %17, label %20

17:                                               ; preds = %4
  %18 = load i64, ptr %8, align 8, !tbaa !16
  %19 = icmp ugt i64 %18, 0
  br label %20

20:                                               ; preds = %17, %4
  %21 = phi i1 [ false, %4 ], [ %19, %17 ]
  %22 = zext i1 %21 to i32
  %23 = icmp ne i32 %22, 0
  %24 = zext i1 %23 to i32
  %25 = sext i32 %24 to i64
  %26 = call i64 @llvm.expect.i64(i64 %25, i64 0)
  %27 = icmp ne i64 %26, 0
  br i1 %27, label %28, label %30

28:                                               ; preds = %20
  %29 = load ptr, ptr %5, align 8, !tbaa !4
  call void @luaD_throw(ptr noundef %29, i32 noundef 4) #7
  unreachable

30:                                               ; preds = %20
  %31 = load ptr, ptr %9, align 8, !tbaa !9
  call void @llvm.lifetime.end.p0(i64 8, ptr %9) #6
  ret ptr %31
}

; Function Attrs: nounwind uwtable
define hidden ptr @luaM_shrinkvector_(ptr noundef %0, ptr noundef %1, ptr noundef %2, i32 noundef %3, i32 noundef %4) #0 {
  %6 = alloca ptr, align 8
  %7 = alloca ptr, align 8
  %8 = alloca ptr, align 8
  %9 = alloca i32, align 4
  %10 = alloca i32, align 4
  %11 = alloca ptr, align 8
  %12 = alloca i64, align 8
  %13 = alloca i64, align 8
  store ptr %0, ptr %6, align 8, !tbaa !4
  store ptr %1, ptr %7, align 8, !tbaa !9
  store ptr %2, ptr %8, align 8, !tbaa !12
  store i32 %3, ptr %9, align 4, !tbaa !10
  store i32 %4, ptr %10, align 4, !tbaa !10
  call void @llvm.lifetime.start.p0(i64 8, ptr %11) #6
  call void @llvm.lifetime.start.p0(i64 8, ptr %12) #6
  %14 = load ptr, ptr %8, align 8, !tbaa !12
  %15 = load i32, ptr %14, align 4, !tbaa !10
  %16 = sext i32 %15 to i64
  %17 = load i32, ptr %10, align 4, !tbaa !10
  %18 = zext i32 %17 to i64
  %19 = mul i64 %16, %18
  store i64 %19, ptr %12, align 8, !tbaa !16
  call void @llvm.lifetime.start.p0(i64 8, ptr %13) #6
  %20 = load i32, ptr %9, align 4, !tbaa !10
  %21 = sext i32 %20 to i64
  %22 = load i32, ptr %10, align 4, !tbaa !10
  %23 = zext i32 %22 to i64
  %24 = mul i64 %21, %23
  store i64 %24, ptr %13, align 8, !tbaa !16
  %25 = load ptr, ptr %6, align 8, !tbaa !4
  %26 = load ptr, ptr %7, align 8, !tbaa !9
  %27 = load i64, ptr %12, align 8, !tbaa !16
  %28 = load i64, ptr %13, align 8, !tbaa !16
  %29 = call ptr @luaM_saferealloc_(ptr noundef %25, ptr noundef %26, i64 noundef %27, i64 noundef %28)
  store ptr %29, ptr %11, align 8, !tbaa !9
  %30 = load i32, ptr %9, align 4, !tbaa !10
  %31 = load ptr, ptr %8, align 8, !tbaa !12
  store i32 %30, ptr %31, align 4, !tbaa !10
  %32 = load ptr, ptr %11, align 8, !tbaa !9
  call void @llvm.lifetime.end.p0(i64 8, ptr %13) #6
  call void @llvm.lifetime.end.p0(i64 8, ptr %12) #6
  call void @llvm.lifetime.end.p0(i64 8, ptr %11) #6
  ret ptr %32
}