; Function Attrs: nounwind uwtable
define hidden ptr @luaM_shrinkvector_(ptr noundef %0, ptr noundef %1, ptr noundef captures(none) %2, i32 noundef %3, i32 noundef %4) local_unnamed_addr #0 {
  %6 = load i32, ptr %2, align 4, !tbaa !4
  %7 = sext i32 %6 to i64
  %8 = zext i32 %4 to i64
  %9 = mul nsw i64 %7, %8
  %10 = sext i32 %3 to i64
  %11 = mul nsw i64 %8, %10
  %12 = getelementptr inbounds nuw i8, ptr %0, i64 24
  %13 = load ptr, ptr %12, align 8, !tbaa !9
  %14 = load ptr, ptr %13, align 8, !tbaa !22
  %15 = getelementptr inbounds nuw i8, ptr %13, i64 8
  %16 = load ptr, ptr %15, align 8, !tbaa !29
  %17 = tail call ptr %14(ptr noundef %16, ptr noundef %1, i64 noundef %9, i64 noundef %11) #6
  %18 = icmp eq ptr %17, null
  %19 = icmp ne i64 %11, 0
  %20 = and i1 %19, %18
  br i1 %20, label %21, label %24, !prof !30

21:                                               ; preds = %5
  %22 = tail call fastcc ptr @tryagain(ptr noundef nonnull %0, ptr noundef %1, i64 noundef %9, i64 noundef %11)
  %23 = icmp eq ptr %22, null
  br i1 %23, label %luaM_realloc_.exit.i, label %24

24:                                               ; preds = %21, %5
  %.017.i.i = phi ptr [ %22, %21 ], [ %17, %5 ]
  %.neg.i.i = sub i64 %9, %11
  %25 = getelementptr inbounds nuw i8, ptr %13, i64 24
  %26 = load i64, ptr %25, align 8, !tbaa !31
  %27 = add i64 %.neg.i.i, %26
  store i64 %27, ptr %25, align 8, !tbaa !31
  br label %luaM_realloc_.exit.i

luaM_realloc_.exit.i:                             ; preds = %24, %21
  %.0.i.i = phi ptr [ %.017.i.i, %24 ], [ null, %21 ]
  %28 = icmp eq ptr %.0.i.i, null
  %29 = and i1 %19, %28
  br i1 %29, label %30, label %luaM_saferealloc_.exit, !prof !30

30:                                               ; preds = %luaM_realloc_.exit.i
  tail call void @luaD_throw(ptr noundef nonnull %0, i32 noundef 4) #5
  unreachable

luaM_saferealloc_.exit:                           ; preds = %luaM_realloc_.exit.i
  store i32 %3, ptr %2, align 4, !tbaa !4
  ret ptr %.0.i.i
}